target datalayout = "e-m:e-p270:32:32-p271:32:32-p272:64:64-i64:64-i128:128-f80:128-n8:16:32:64-S128"
target triple = "x86_64-unknown-linux-gnu"

%"class.OpenImageIO_v2_6_0::basic_string_view" = type { ptr, i64 }
%"class.OpenImageIO_v2_6_0::span" = type { ptr, i64 }

; Function Attrs: mustprogress nounwind uwtable
define linkonce_odr hidden void @_ZN18OpenImageIO_v2_6_017basic_string_viewIcSt11char_traitsIcEEC2EPKcm(ptr noundef nonnull align 8 dereferenceable(16) %this, ptr noundef %chars, i64 noundef %len) unnamed_addr #4 comdat align 2 {
entry:
  %this.addr = alloca ptr, align 8
  %chars.addr = alloca ptr, align 8
  %len.addr = alloca i64, align 8
  store ptr %this, ptr %this.addr, align 8
  store ptr %chars, ptr %chars.addr, align 8
  store i64 %len, ptr %len.addr, align 8
  %this1 = load ptr, ptr %this.addr, align 8
  %m_chars = getelementptr inbounds %"class.OpenImageIO_v2_6_0::basic_string_view", ptr %this1, i32 0, i32 0
  %0 = load ptr, ptr %chars.addr, align 8
  store ptr %0, ptr %m_chars, align 8
  %m_len = getelementptr inbounds %"class.OpenImageIO_v2_6_0::basic_string_view", ptr %this1, i32 0, i32 1
  %1 = load i64, ptr %len.addr, align 8
  store i64 %1, ptr %m_len, align 8
  ret void
}

; Function Attrs: mustprogress nounwind uwtable
define linkonce_odr hidden noundef i64 @_ZNK18OpenImageIO_v2_6_04spanIKhLln1EE4sizeEv(ptr noundef nonnull align 8 dereferenceable(16) %this) #4 comdat align 2 {
entry:
  %this.addr = alloca ptr, align 8
  store ptr %this, ptr %this.addr, align 8
  %this1 = load ptr, ptr %this.addr, align 8
  %m_size = getelementptr inbounds %"class.OpenImageIO_v2_6_0::span", ptr %this1, i32 0, i32 1
  %0 = load i64, ptr %m_size, align 8
  ret i64 %0
}

; Function Attrs: mustprogress nounwind uwtable
define linkonce_odr hidden noundef ptr @_ZNK18OpenImageIO_v2_6_04spanIKhLln1EE4dataEv(ptr noundef nonnull align 8 dereferenceable(16) %this) #4 comdat align 2 {
entry:
  %this.addr = alloca ptr, align 8
  store ptr %this, ptr %this.addr, align 8
  %this1 = load ptr, ptr %this.addr, align 8
  %m_data = getelementptr inbounds %"class.OpenImageIO_v2_6_0::span", ptr %this1, i32 0, i32 0
  %0 = load ptr, ptr %m_data, align 8
  ret ptr %0
}

; Function Attrs: mustprogress uwtable
define noundef zeroext i1 @_ZN18OpenImageIO_v2_6_010decode_xmpENS_4spanIKhLln1EEERNS_9ImageSpecE(ptr %xml.coerce0, i64 %xml.coerce1, ptr noundef nonnull align 8 dereferenceable(160) %spec) #6 {
entry:
  %xml = alloca %"class.OpenImageIO_v2_6_0::span", align 8
  %spec.addr = alloca ptr, align 8
  %agg.tmp = alloca %"class.OpenImageIO_v2_6_0::basic_string_view", align 8
  %0 = getelementptr inbounds { ptr, i64 }, ptr %xml, i32 0, i32 0
  store ptr %xml.coerce0, ptr %0, align 8
  %1 = getelementptr inbounds { ptr, i64 }, ptr %xml, i32 0, i32 1
  store i64 %xml.coerce1, ptr %1, align 8
  store ptr %spec, ptr %spec.addr, align 8
  %call = call noundef ptr @_ZNK18OpenImageIO_v2_6_04spanIKhLln1EE4dataEv(ptr noundef nonnull align 8 dereferenceable(16) %xml) #3
  %call1 = call noundef i64 @_ZNK18OpenImageIO_v2_6_04spanIKhLln1EE4sizeEv(ptr noundef nonnull align 8 dereferenceable(16) %xml) #3
  call void @_ZN18OpenImageIO_v2_6_017basic_string_viewIcSt11char_traitsIcEEC2EPKcm(ptr noundef nonnull align 8 dereferenceable(16) %agg.tmp, ptr noundef %call, i64 noundef %call1) #3
  %2 = load ptr, ptr %spec.addr, align 8
  %call2 = call noundef zeroext i1 @_ZN18OpenImageIO_v2_6_010decode_xmpENS_17basic_string_viewIcSt11char_traitsIcEEERNS_9ImageSpecE(ptr noundef %agg.tmp, ptr noundef nonnull align 8 dereferenceable(160) %2)
  ret i1 %call2
}