; Function Attrs: mustprogress uwtable
define noundef zeroext i1 @_ZN18OpenImageIO_v2_6_010decode_xmpENS_4spanIKhLln1EEERNS_9ImageSpecE(ptr %xml.coerce0, i64 %xml.coerce1, ptr noundef nonnull align 8 dereferenceable(160) %spec) local_unnamed_addr #5 {
entry:
  %agg.tmp = alloca %"class.OpenImageIO_v2_6_0::basic_string_view", align 8
  store ptr %xml.coerce0, ptr %agg.tmp, align 8
  %m_len.i = getelementptr inbounds i8, ptr %agg.tmp, i64 8
  store i64 %xml.coerce1, ptr %m_len.i, align 8
  %call2 = call noundef zeroext i1 @_ZN18OpenImageIO_v2_6_010decode_xmpENS_17basic_string_viewIcSt11char_traitsIcEEERNS_9ImageSpecE(ptr noundef nonnull %agg.tmp, ptr noundef nonnull align 8 dereferenceable(160) %spec)
  ret i1 true
}